; Function Attrs: mustprogress nounwind uwtable
define internal fastcc noundef range(i32 0, 4) i32 @_ZL35DecodeGPRSeqPairsClassRegisterClassRN4llvm6MCInstEjjmPKNS_14MCDisassemblerE(ptr noundef nonnull align 8 dereferenceable(128) %0, i32 noundef range(i32 33, 62) %1, i32 noundef %2) unnamed_addr #0 {
  %4 = and i32 %2, 1
  %.not = icmp eq i32 %4, 0
  br i1 %.not, label %5, label %24

5:                                                ; preds = %3
  %6 = zext nneg i32 %1 to i64
  %7 = getelementptr inbounds nuw [0 x %"class.llvm::MCRegisterClass"], ptr @_ZN4llvm24AArch64MCRegisterClassesE, i64 0, i64 %6
  %8 = lshr exact i32 %2, 1
  %9 = load ptr, ptr %7, align 8
  %10 = zext nneg i32 %8 to i64
  %11 = getelementptr inbounds nuw i16, ptr %9, i64 %10
  %12 = load i16, ptr %11, align 2
  %.sroa.3.8.insert.ext.i = zext i16 %12 to i64
  %13 = getelementptr inbounds nuw i8, ptr %0, i64 16
  %14 = tail call noundef i64 @_ZNK4llvm15SmallVectorBaseIjE4sizeEv(ptr noundef nonnull align 8 dereferenceable(16) %13) #13
  %15 = add i64 %14, 1
  %16 = tail call noundef i64 @_ZNK4llvm15SmallVectorBaseIjE8capacityEv(ptr noundef nonnull align 8 dereferenceable(16) %13) #13
  %.not.i.i.i.i = icmp ugt i64 %15, %16
  br i1 %.not.i.i.i.i, label %17, label %_ZN4llvm6MCInst10addOperandENS_9MCOperandE.exit

17:                                               ; preds = %5
  %18 = getelementptr inbounds nuw i8, ptr %0, i64 32
  tail call void @_ZN4llvm15SmallVectorBaseIjE8grow_podEPvmm(ptr noundef nonnull align 8 dereferenceable(16) %13, ptr noundef nonnull %18, i64 noundef %15, i64 noundef 16) #13
  br label %_ZN4llvm6MCInst10addOperandENS_9MCOperandE.exit

_ZN4llvm6MCInst10addOperandENS_9MCOperandE.exit:  ; preds = %5, %17
  %19 = load ptr, ptr %13, align 8
  %20 = tail call noundef i64 @_ZNK4llvm15SmallVectorBaseIjE4sizeEv(ptr noundef nonnull align 8 dereferenceable(16) %13) #13
  %21 = getelementptr inbounds %"class.llvm::MCOperand", ptr %19, i64 %20
  store i8 1, ptr %21, align 1
  %.sroa.22.0..sroa_idx.i.i = getelementptr inbounds nuw i8, ptr %21, i64 8
  store i64 %.sroa.3.8.insert.ext.i, ptr %.sroa.22.0..sroa_idx.i.i, align 1
  %22 = tail call noundef i64 @_ZNK4llvm15SmallVectorBaseIjE4sizeEv(ptr noundef nonnull align 8 dereferenceable(16) %13) #13
  %23 = add i64 %22, 1
  tail call void @_ZN4llvm15SmallVectorBaseIjE8set_sizeEm(ptr noundef nonnull align 8 dereferenceable(16) %13, i64 noundef %23) #13
  br label %24

24:                                               ; preds = %3, %_ZN4llvm6MCInst10addOperandENS_9MCOperandE.exit
  %.0 = phi i32 [ 3, %_ZN4llvm6MCInst10addOperandENS_9MCOperandE.exit ], [ 0, %3 ]
  ret i32 %.0
}